(lp0
F4500.0
aF800.0
aF1000.0
aF4200.0
aF700.0
aF1300.0
aF4100.0
aF1000.0
aF800.0
aF4300.0
aF4100.0
aF700.0
aF4400.0
aF800.0
aF600.0
aF3900.0
aF1100.0
aF4400.0
aF4000.0
aF4900.0
aF800.0
aF4100.0
aF8400.0
aF600.0
aF4000.0
aF800.0
aF800.0
aF5000.0
aF4100.0
aF4300.0
aF4700.0
aF4400.0
aF4200.0
aF1000.0
aF4300.0
aF4000.0
aF4200.0
aF900.0
aF7600.0
aF4800.0
aF8000.0
aF1000.0
aF4600.0
aF4500.0
aF4200.0
aF800.0
aF3900.0
aF4100.0
aF4200.0
aF4200.0
aF4400.0
aF700.0
aF4600.0
aF4600.0
aF4600.0
aF1000.0
aF700.0
aF4900.0
aF1500.0
aF3800.0
aF3900.0
aF1000.0
aF4000.0
aF7900.0
aF4400.0
aF4300.0
aF4000.0
aF4300.0
aF4000.0
aF800.0
aF4200.0
aF4400.0
aF1200.0
aF4300.0
aF4800.0
aF4700.0
aF4300.0
aF4300.0
aF4300.0
aF800.0
aF3900.0
aF7900.0
aF700.0
aF4100.0
aF1000.0
aF4000.0
aF4500.0
aF1000.0
aF4100.0
aF4100.0
aF4500.0
aF1100.0
aF4700.0
aF4500.0
aF700.0
aF4700.0
aF1000.0
aF4300.0
aF4100.0
aF800.0
aF4500.0
aF4200.0
aF4400.0
aF600.0
aF4100.0
aF4000.0
aF4300.0
aF4600.0
aF8400.0
aF4600.0
aF900.0
aF700.0
aF4100.0
aF4200.0
aF4200.0
aF4600.0
aF3900.0
aF1500.0
aF3900.0
aF4200.0
aF3900.0
aF800.0
aF4000.0
aF500.0
aF1000.0
aF500.0
aF4500.0
aF400.0
aF4000.0
aF900.0
aF4100.0
aF8500.0
aF900.0
aF5100.0
aF600.0
aF4200.0
aF4600.0
aF4100.0
aF900.0
aF4400.0
aF4100.0
aF4100.0
aF3900.0
aF5200.0
aF3900.0
aF4000.0
aF4400.0
aF500.0
aF700.0
aF4100.0
aF500.0
aF4500.0
aF4700.0
aF8500.0
aF4000.0
aF4300.0
aF800.0
aF7600.0
aF4200.0
aF3800.0
aF3800.0
aF4100.0
aF4100.0
aF800.0
aF4200.0
aF1000.0
aF4000.0
aF4200.0
aF900.0
aF1200.0
aF800.0
aF4700.0
aF4200.0
aF4100.0
aF600.0
aF8300.0
aF1500.0
aF4300.0
aF900.0
aF4800.0
aF1300.0
aF1000.0
aF4100.0
aF4300.0
aF3900.0
aF4400.0
aF4900.0
aF4400.0
aF800.0
aF3900.0
aF1000.0
aF800.0
aF800.0
aF4000.0
aF700.0
aF4000.0
aF800.0
aF4700.0
aF4900.0
aF800.0
aF700.0
aF700.0
aF4000.0
aF4800.0
aF4600.0
aF4000.0
aF4900.0
aF1000.0
aF4200.0
aF5000.0
aF4200.0
aF800.0
aF3900.0
aF4300.0
aF4300.0
aF900.0
aF4300.0
aF4400.0
aF800.0
aF4400.0
aF600.0
aF4500.0
aF900.0
aF400.0
aF4500.0
aF4700.0
aF7800.0
aF700.0
aF4000.0
aF600.0
aF4400.0
aF4000.0
aF4800.0
aF4300.0
aF900.0
aF1300.0
aF4800.0
aF700.0
aF4700.0
aF4000.0
aF4100.0
aF700.0
aF4400.0
aF1000.0
aF4400.0
aF4300.0
aF500.0
aF4300.0
aF800.0
aF1500.0
aF800.0
aF700.0
aF800.0
aF3900.0
aF4100.0
aF4000.0
aF800.0
aF3900.0
aF1300.0
aF4000.0
aF700.0
aF4300.0
aF4300.0
aF4100.0
aF900.0
aF3900.0
aF3900.0
aF4500.0
aF4600.0
aF4500.0
aF800.0
aF1000.0
aF4200.0
aF1000.0
aF1000.0
aF500.0
aF4500.0
aF4100.0
aF4600.0
aF900.0
aF800.0
aF4500.0
aF4300.0
aF900.0
aF4700.0
aF4100.0
aF1100.0
aF4700.0
aF1200.0
aF4800.0
aF800.0
aF4000.0
aF4300.0
aF4500.0
aF800.0
aF4700.0
aF4100.0
aF4600.0
aF3800.0
aF4300.0
aF4200.0
aF800.0
aF4700.0
aF700.0
aF600.0
aF4700.0
aF4000.0
aF500.0
aF4200.0
aF4300.0
aF4000.0
aF900.0
aF700.0
aF4000.0
aF1900.0
aF900.0
aF4700.0
aF500.0
aF3900.0
aF4000.0
aF1000.0
aF4100.0
aF900.0
aF4000.0
aF4800.0
aF4700.0
aF3900.0
aF4000.0
aF4400.0
aF4200.0
aF4400.0
aF900.0
aF700.0
aF3900.0
aF4000.0
aF4300.0
aF3900.0
aF800.0
aF4000.0
aF8000.0
aF4600.0
aF4000.0
aF4600.0
aF3900.0
aF3900.0
aF4600.0
aF800.0
aF600.0
aF4000.0
aF700.0
aF1400.0
aF4000.0
aF4000.0
aF700.0
aF4400.0
aF4500.0
aF800.0
aF4000.0
aF4300.0
aF4000.0
aF4100.0
aF4100.0
aF4700.0
aF500.0
aF700.0
aF4500.0
aF7900.0
aF4000.0
aF800.0
aF4700.0
aF4100.0
aF4200.0
aF3900.0
aF4300.0
aF3800.0
aF4200.0
aF1400.0
aF3900.0
aF4500.0
aF4400.0
aF800.0
aF700.0
aF1000.0
aF7800.0
aF900.0
aF4200.0
aF300.0
aF4600.0
aF4400.0
aF4200.0
aF4300.0
aF800.0
aF4100.0
aF8400.0
aF4500.0
aF4100.0
aF4300.0
aF600.0
aF4300.0
aF3900.0
aF4200.0
aF3900.0
aF600.0
aF4200.0
aF3900.0
aF1100.0
aF7800.0
aF600.0
aF4300.0
aF4200.0
aF4100.0
aF700.0
aF4300.0
aF4300.0
aF4100.0
aF900.0
aF4000.0
aF4000.0
aF4200.0
aF4000.0
aF4300.0
aF500.0
aF4100.0
aF4400.0
aF3800.0
aF4200.0
aF4400.0
aF4500.0
aF4500.0
aF4300.0
aF4700.0
aF1000.0
aF800.0
aF4300.0
aF3900.0
aF3900.0
aF4000.0
aF1200.0
aF1100.0
aF4900.0
aF4400.0
aF900.0
aF700.0
aF4100.0
aF4500.0
aF900.0
aF4300.0
aF900.0
aF4400.0
aF4200.0
aF4300.0
aF3900.0
aF7600.0
aF4500.0
aF4000.0
aF1200.0
aF4200.0
aF4100.0
aF4100.0
aF700.0
aF800.0
aF4400.0
aF900.0
aF1100.0
aF1600.0
aF4100.0
aF800.0
aF4200.0
aF4800.0
aF1000.0
aF4000.0
aF1300.0
aF4400.0
aF4500.0
aF4100.0
aF3900.0
aF3800.0
aF4600.0
aF4300.0
aF7800.0
aF4000.0
aF4300.0
aF8000.0
aF3800.0
aF1000.0
aF4000.0
aF4300.0
aF4400.0
aF4100.0
aF800.0
aF4900.0
aF1100.0
aF4100.0
aF1100.0
aF4400.0
aF4000.0
aF4500.0
aF800.0
aF3900.0
aF900.0
aF4400.0
aF4400.0
aF4400.0
aF800.0
aF3800.0
aF700.0
aF4300.0
aF800.0
aF700.0
aF1200.0
aF800.0
aF4100.0
aF1200.0
aF4000.0
aF700.0
aF4600.0
aF4000.0
aF4100.0
aF4400.0
aF8100.0
aF4000.0
aF4400.0
aF4000.0
aF4600.0
aF4000.0
aF5100.0
aF4900.0
aF4100.0
aF4200.0
aF4000.0
aF1200.0
aF4100.0
aF4600.0
aF4700.0
aF3900.0
aF4300.0
aF900.0
aF4600.0
aF1400.0
aF3900.0
aF4400.0
aF1200.0
aF4100.0
aF500.0
aF700.0
aF1000.0
aF900.0
aF4100.0
aF4000.0
aF4800.0
aF4000.0
aF900.0
aF7900.0
aF1100.0
aF4400.0
aF4000.0
aF4200.0
aF4000.0
aF4200.0
aF900.0
aF4300.0
aF800.0
aF4500.0
aF900.0
aF5000.0
aF900.0
aF4700.0
aF4400.0
aF4400.0
aF4300.0
aF600.0
aF1300.0
aF1000.0
aF4000.0
aF4200.0
aF4300.0
aF4400.0
aF7800.0
aF900.0
aF4300.0
aF3900.0
aF4200.0
aF4300.0
aF700.0
aF4500.0
aF700.0
aF4100.0
aF700.0
aF3900.0
aF400.0
aF4900.0
aF4300.0
aF4500.0
aF900.0
aF800.0
aF4600.0
aF4200.0
aF700.0
aF800.0
aF400.0
aF4400.0
aF4200.0
aF4000.0
aF800.0
aF4400.0
aF4200.0
aF3900.0
aF1300.0
aF4200.0
aF4000.0
aF4000.0
aF4100.0
aF1500.0
aF4300.0
aF4600.0
aF600.0
aF1000.0
aF4800.0
aF3900.0
aF4100.0
aF4600.0
aF800.0
aF800.0
aF7700.0
aF4200.0
aF900.0
aF4300.0
aF4200.0
aF4200.0
aF4200.0
aF4200.0
aF4900.0
aF7800.0
aF4600.0
aF4500.0
aF8000.0
aF8300.0
aF4100.0
aF700.0
aF8200.0
aF1100.0
aF900.0
aF800.0
aF4300.0
aF900.0
aF4300.0
aF3900.0
aF4600.0
aF4500.0
aF4600.0
aF4400.0
aF700.0
aF3900.0
aF4200.0
aF1000.0
aF4200.0
aF8200.0
aF800.0
aF4800.0
aF800.0
aF800.0
aF4200.0
aF7800.0
aF4400.0
aF3900.0
aF8300.0
aF3800.0
aF1000.0
aF4600.0
aF4300.0
aF7900.0
aF4600.0
aF800.0
aF4300.0
aF1300.0
aF7900.0
aF900.0
aF4300.0
aF4100.0
aF800.0
aF4400.0
aF4200.0
aF4700.0
aF8000.0
aF8300.0
aF4500.0
aF4800.0
aF3900.0
aF3800.0
aF4100.0
aF700.0
aF4000.0
aF1000.0
aF4800.0
aF4100.0
aF5100.0
aF4100.0
aF4700.0
aF4200.0
aF4500.0
aF4000.0
aF4000.0
aF4500.0
aF700.0
aF4300.0
aF4000.0
aF7900.0
aF800.0
aF4500.0
aF900.0
aF3800.0
aF500.0
aF600.0
aF4400.0
aF4000.0
aF4200.0
aF4200.0
aF900.0
aF4000.0
aF4200.0
aF900.0
aF900.0
aF3800.0
aF800.0
aF700.0
aF4100.0
aF4500.0
aF4900.0
aF4200.0
aF4900.0
aF4000.0
aF4200.0
aF3900.0
aF4200.0
aF7700.0
aF4400.0
aF4000.0
aF4100.0
aF7600.0
aF3800.0
aF700.0
aF800.0
aF4200.0
aF800.0
aF500.0
aF4000.0
aF700.0
aF4600.0
aF4100.0
aF4400.0
aF500.0
aF700.0
aF700.0
aF700.0
aF800.0
aF800.0
aF4400.0
aF4800.0
aF3800.0
aF8100.0
aF3900.0
aF4200.0
aF4400.0
aF4100.0
aF3900.0
aF600.0
aF4200.0
aF4500.0
aF900.0
aF900.0
aF700.0
aF900.0
aF1000.0
aF900.0
aF4200.0
aF4200.0
aF1500.0
aF4200.0
aF4000.0
aF4300.0
aF4300.0
aF4300.0
aF4700.0
aF4100.0
aF4100.0
aF4500.0
aF4400.0
aF800.0
aF4700.0
aF4300.0
aF8300.0
aF1100.0
aF4200.0
aF4000.0
aF4000.0
aF700.0
aF4400.0
aF4700.0
aF3900.0
aF4700.0
aF4300.0
aF4000.0
aF400.0
aF4700.0
aF4300.0
aF4400.0
aF4200.0
aF4200.0
aF4600.0
aF4900.0
aF5300.0
aF4100.0
aF4100.0
aF4300.0
aF4300.0
aF800.0
aF4400.0
aF4500.0
aF4300.0
aF4400.0
aF4400.0
aF4300.0
aF3900.0
aF1000.0
aF1100.0
aF900.0
aF3900.0
aF600.0
aF4300.0
aF4500.0
aF800.0
aF4500.0
aF4700.0
aF4100.0
aF800.0
aF700.0
aF4900.0
aF4000.0
aF4200.0
aF700.0
aF4700.0
aF4300.0
aF700.0
aF800.0
aF4600.0
aF8100.0
aF4000.0
aF4400.0
aF4000.0
aF700.0
aF4300.0
aF4700.0
aF4600.0
aF4400.0
aF900.0
aF4200.0
aF4100.0
aF7700.0
aF900.0
aF4300.0
aF4400.0
aF4300.0
aF500.0
aF4300.0
aF4400.0
aF1100.0
aF4000.0
aF4800.0
aF4700.0
aF4300.0
aF8100.0
aF700.0
aF4400.0
aF4500.0
aF4300.0
aF5100.0
aF3800.0
aF1300.0
aF800.0
aF1000.0
aF4200.0
aF3900.0
aF4300.0
aF900.0
aF4600.0
aF800.0
aF800.0
aF4100.0
aF8200.0
aF4500.0
aF4100.0
aF700.0
aF4200.0
aF4300.0
aF4900.0
aF800.0
aF4600.0
aF4300.0
aF4100.0
aF4100.0
aF4300.0
aF1200.0
aF600.0
aF4900.0
aF4100.0
aF3800.0
aF1200.0
aF4500.0
aF3800.0
aF1000.0
aF700.0
aF4800.0
aF3900.0
aF4400.0
aF4200.0
aF4800.0
aF4800.0
aF4400.0
aF4400.0
aF4200.0
aF500.0
aF4300.0
aF4300.0
aF3900.0
aF4000.0
aF4000.0
aF4100.0
aF4200.0
aF4100.0
aF800.0
aF600.0
aF600.0
aF500.0
aF700.0
aF500.0
aF3800.0
aF1100.0
aF4100.0
aF4500.0
aF600.0
aF4600.0
aF4300.0
aF1400.0
aF4700.0
aF4500.0
aF4600.0
aF4400.0
aF4100.0
aF4600.0
aF1000.0
aF4200.0
aF11600.0
aF4500.0
aF4200.0
aF12100.0
aF4300.0
aF700.0
aF4900.0
aF4100.0
aF900.0
aF4300.0
aF4100.0
aF4000.0
aF4000.0
aF4600.0
aF4100.0
aF4300.0
aF4400.0
aF4400.0
aF4400.0
aF4100.0
aF8200.0
aF4400.0
aF3800.0
aF3900.0
aF4000.0
aF4000.0
aF900.0
aF4100.0
aF4100.0
aF3900.0
aF3900.0
aF3900.0
aF800.0
aF900.0
aF4100.0
aF4200.0
aF700.0
aF8100.0
aF4300.0
aF4000.0
aF4400.0
aF4600.0
aF1000.0
aF4200.0
aF1100.0
aF4300.0
aF7600.0
aF4600.0
aF1000.0
aF800.0
aF3800.0
aF400.0
aF4600.0
aF4100.0
aF1800.0
aF800.0
aF4100.0
aF4100.0
aF1100.0
aF1200.0
aF4200.0
aF4300.0
aF4900.0
aF4800.0
aF3900.0
aF4400.0
aF4700.0
aF400.0
aF1100.0
aF4400.0
aF1200.0
aF4700.0
aF4200.0
aF4000.0
aF4300.0
aF4200.0
aF4400.0
aF4300.0
aF4100.0
aF4200.0
aF3900.0
aF4000.0
aF4900.0
aF4600.0
aF4400.0
aF4700.0
aF7700.0
aF4300.0
aF800.0
aF700.0
aF4200.0
aF7800.0
aF4800.0
aF900.0
aF4700.0
aF4600.0
aF4500.0
aF3800.0
aF600.0
aF4000.0
aF4300.0
aF4300.0
aF3900.0
aF4300.0
aF1100.0
aF700.0
aF4600.0
aF1100.0
aF3800.0
aF800.0
aF4400.0
aF700.0
aF8700.0
aF7600.0
aF4500.0
aF4200.0
aF4400.0
aF4100.0
aF4000.0
aF1000.0
aF3900.0
aF4300.0
aF900.0
aF4500.0
aF4600.0
aF3800.0
aF800.0
aF4200.0
aF1400.0
aF3900.0
aF4400.0
aF4500.0
aF4600.0
aF4600.0
aF4200.0
aF4200.0
aF900.0
aF700.0
aF1300.0
aF3800.0
aF1200.0
aF4500.0
aF4100.0
aF800.0
aF4400.0
aF4400.0
aF4500.0
aF4000.0
aF4000.0
aF4700.0
aF4800.0
aF4300.0
aF4200.0
aF4100.0
aF4300.0
aF8100.0
aF4400.0
aF4300.0
aF4100.0
aF4100.0
aF3900.0
aF4200.0
aF600.0
aF4000.0
aF4500.0
aF700.0
aF4500.0
aF4100.0
aF4300.0
aF4500.0
aF4300.0
aF800.0
aF4700.0
aF800.0
aF4500.0
aF700.0
aF4100.0
aF900.0
aF4200.0
aF4700.0
aF4100.0
aF4800.0
aF4400.0
aF4000.0
aF4000.0
aF4100.0
aF4500.0
aF4600.0
aF4200.0
aF700.0
aF1000.0
aF4200.0
aF3800.0
aF4500.0
aF700.0
aF800.0
aF4000.0
aF500.0
aF4000.0
aF4400.0
aF5100.0
aF4600.0
aF4500.0
aF4000.0
aF600.0
aF1000.0
aF4700.0
aF3900.0
aF4300.0
aF4100.0
aF4400.0
aF600.0
aF1200.0
aF4200.0
aF4800.0
aF900.0
aF3900.0
aF8200.0
aF4400.0
aF4300.0
aF700.0
aF4600.0
aF8500.0
aF4100.0
aF4000.0
aF800.0
aF4100.0
aF4500.0
aF4200.0
aF4000.0
aF1000.0
aF1100.0
aF4200.0
aF7800.0
aF1000.0
aF4400.0
aF600.0
aF4300.0
aF4200.0
aF4500.0
aF4200.0
aF3800.0
aF1400.0
aF4000.0
aF1000.0
aF4200.0
aF600.0
aF4500.0
aF4400.0
aF600.0
aF900.0
aF4300.0
aF8100.0
aF4300.0
aF4700.0
aF4300.0
aF8300.0
aF8600.0
aF3900.0
aF4300.0
aF1000.0
aF3900.0
aF900.0
aF4600.0
aF4200.0
aF4100.0
aF4500.0
aF4200.0
aF600.0
aF4600.0
aF4200.0
aF4200.0
aF4600.0
aF4600.0
aF700.0
aF4900.0
aF4400.0
aF4100.0
aF3900.0
aF4200.0
aF8000.0
aF3900.0
aF600.0
aF8400.0
aF4500.0
aF4700.0
aF4700.0
aF4100.0
aF1000.0
aF1000.0
aF4000.0
aF4300.0
aF8500.0
aF4700.0
aF500.0
aF4300.0
aF4600.0
aF900.0
aF4200.0
aF4200.0
aF4100.0
aF1600.0
aF4600.0
aF600.0
aF700.0
aF4400.0
aF3800.0
aF4000.0
aF8200.0
aF4500.0
aF4300.0
aF400.0
aF1400.0
aF400.0
aF4400.0
aF700.0
aF4200.0
aF4800.0
aF3800.0
aF4100.0
aF4100.0
aF4000.0
aF700.0
aF4300.0
aF4200.0
aF4600.0
aF7600.0
aF4300.0
aF1000.0
aF4300.0
aF4300.0
aF4100.0
aF600.0
aF4400.0
aF4200.0
aF900.0
aF3800.0
aF700.0
aF4400.0
aF4500.0
aF4400.0
aF600.0
aF4000.0
aF4100.0
aF8500.0
aF1000.0
aF4800.0
aF4400.0
aF4900.0
aF3800.0
aF4500.0
aF700.0
aF900.0
aF4000.0
aF900.0
aF4200.0
aF4400.0
aF4500.0
aF4600.0
aF4100.0
aF1000.0
aF4800.0
aF4500.0
aF4100.0
aF900.0
aF3900.0
aF1000.0
aF4100.0
aF700.0
aF4100.0
aF3800.0
aF1100.0
aF4100.0
aF4200.0
aF3900.0
aF800.0
aF700.0
aF4400.0
aF4500.0
aF800.0
aF800.0
aF4100.0
aF800.0
aF4400.0
aF3800.0
aF4500.0
aF4000.0
aF1100.0
aF4400.0
aF4400.0
aF3800.0
aF500.0
aF1000.0
aF900.0
aF4500.0
aF4500.0
aF4700.0
aF3900.0
aF8200.0
aF900.0
aF4600.0
aF4100.0
aF800.0
aF1200.0
aF800.0
aF4200.0
aF3900.0
aF4400.0
aF4300.0
aF7600.0
aF4900.0
aF4400.0
aF4700.0
aF800.0
aF1300.0
aF4300.0
aF1100.0
aF4500.0
aF4600.0
aF4400.0
aF700.0
aF4200.0
aF4300.0
aF4000.0
aF4300.0
aF900.0
aF1100.0
aF4200.0
aF600.0
aF4500.0
aF700.0
aF900.0
aF700.0
aF9000.0
aF4100.0
aF4100.0
aF4300.0
aF900.0
aF600.0
aF1000.0
aF900.0
aF700.0
aF1300.0
aF4100.0
aF4200.0
aF4300.0
aF4400.0
aF1200.0
aF8100.0
aF4200.0
aF1000.0
aF7900.0
aF3800.0
aF700.0
aF7700.0
aF4100.0
aF1000.0
aF4700.0
aF4100.0
aF3900.0
aF4100.0
aF4400.0
aF4200.0
aF4200.0
aF4300.0
aF700.0
aF4000.0
aF900.0
aF4200.0
aF4600.0
aF4100.0
aF4000.0
aF4300.0
aF4800.0
aF4300.0
aF4800.0
aF4700.0
aF4900.0
aF3900.0
aF4000.0
aF1200.0
aF5100.0
aF4600.0
aF4100.0
aF4700.0
aF4300.0
aF4100.0
aF4000.0
aF4500.0
aF900.0
aF4000.0
aF4000.0
aF3900.0
aF4400.0
aF4900.0
aF3900.0
aF800.0
aF4300.0
aF300.0
aF1400.0
aF4000.0
aF4100.0
aF4400.0
aF4100.0
aF4700.0
aF4000.0
aF4300.0
aF4400.0
aF900.0
aF1100.0
aF4100.0
aF800.0
aF4200.0
aF4200.0
aF4400.0
aF4500.0
aF700.0
aF4500.0
aF4600.0
aF700.0
aF4700.0
aF4200.0
aF4300.0
aF4000.0
aF4100.0
aF4400.0
aF4600.0
aF4000.0
aF900.0
aF4200.0
aF600.0
aF4400.0
aF800.0
aF4100.0
aF7700.0
aF4300.0
aF8300.0
aF1100.0
aF4100.0
aF4200.0
aF700.0
aF4700.0
aF800.0
aF4300.0
aF4700.0
aF4500.0
aF4400.0
aF600.0
aF3900.0
aF4000.0
aF4400.0
aF3900.0
aF4600.0
aF4100.0
aF8000.0
aF3900.0
aF4200.0
aF1100.0
aF900.0
aF4200.0
aF4100.0
aF4000.0
aF4000.0
aF4600.0
aF4200.0
aF3800.0
aF4600.0
aF4800.0
aF4500.0
aF8400.0
aF700.0
aF4800.0
aF4300.0
aF4300.0
aF7700.0
aF1000.0
aF4500.0
aF800.0
aF1400.0
aF800.0
aF4000.0
aF3900.0
aF4100.0
aF1200.0
aF900.0
aF4400.0
aF1000.0
aF4100.0
aF4100.0
aF4500.0
aF4000.0
aF3800.0
aF4500.0
aF4400.0
aF4100.0
aF4100.0
aF4200.0
aF4500.0
aF4100.0
aF1400.0
aF4100.0
aF4300.0
aF4600.0
aF1100.0
aF4300.0
aF4200.0
aF600.0
aF4000.0
aF4200.0
aF3900.0
aF700.0
aF4100.0
aF4400.0
aF4000.0
aF4800.0
aF4200.0
aF4200.0
aF4000.0
aF4500.0
aF4400.0
aF4100.0
aF4600.0
aF4200.0
aF1000.0
aF1000.0
aF4300.0
aF4300.0
aF4300.0
aF4400.0
aF800.0
aF4100.0
aF4400.0
aF4700.0
aF3800.0
aF4200.0
aF4600.0
aF4000.0
aF1000.0
aF4800.0
aF4200.0
aF4000.0
aF900.0
aF7900.0
aF4000.0
aF4000.0
aF1000.0
aF4300.0
aF3900.0
aF900.0
aF4500.0
aF4200.0
aF4300.0
aF4200.0
aF4400.0
aF1300.0
aF4000.0
aF5000.0
aF8000.0
aF500.0
aF500.0
aF3800.0
aF1000.0
aF4000.0
aF600.0
aF1100.0
aF4700.0
aF700.0
aF4000.0
aF3900.0
aF4400.0
aF4600.0
aF8100.0
aF4200.0
aF1000.0
aF3800.0
aF4300.0
aF4100.0
aF1100.0
aF4000.0
aF3900.0
aF4200.0
aF4100.0
aF600.0
aF4300.0
aF4400.0
aF3900.0
aF4300.0
aF8200.0
aF900.0
aF4100.0
aF4400.0
aF4500.0
aF3900.0
aF4300.0
aF4200.0
aF700.0
aF4000.0
aF600.0
aF4500.0
aF900.0
aF900.0
aF4600.0
aF4300.0
aF4000.0
aF4200.0
aF1000.0
aF4600.0
aF800.0
aF4400.0
aF4600.0
aF4200.0
aF4200.0
aF5000.0
aF11700.0
aF4500.0
aF800.0
aF4300.0
aF900.0
aF500.0
aF4300.0
aF700.0
aF4000.0
aF1000.0
aF4000.0
aF4500.0
aF3900.0
aF1000.0
aF800.0
aF4100.0
aF800.0
aF3800.0
aF4100.0
aF4600.0
aF4100.0
aF800.0
aF4500.0
aF4200.0
aF4000.0
aF3800.0
aF900.0
aF4000.0
aF4100.0
aF4500.0
aF8200.0
aF500.0
aF4200.0
aF4300.0
aF4100.0
aF4300.0
aF8000.0
aF4600.0
aF3900.0
aF4100.0
aF4200.0
aF1100.0
aF1000.0
aF800.0
aF4200.0
aF4200.0
aF4200.0
aF3900.0
aF800.0
aF4100.0
aF1100.0
aF4200.0
aF4300.0
aF4400.0
aF7800.0
aF4900.0
aF4000.0
aF700.0
aF4000.0
aF1200.0
aF4200.0
aF4700.0
aF800.0
aF4100.0
aF700.0
aF1000.0
aF900.0
aF4500.0
aF800.0
aF900.0
aF8600.0
aF3900.0
aF3900.0
aF900.0
aF900.0
aF700.0
aF8000.0
aF4300.0
aF900.0
aF4300.0
aF4100.0
aF4200.0
aF900.0
aF4600.0
aF4500.0
aF4600.0
aF4200.0
aF4400.0
aF3800.0
aF1000.0
aF800.0
aF1300.0
aF900.0
aF700.0
aF900.0
aF4500.0
aF4600.0
aF4500.0
aF8300.0
aF4200.0
aF600.0
aF4200.0
aF4200.0
aF4100.0
aF4400.0
aF600.0
aF1000.0
aF5000.0
aF4000.0
aF4300.0
aF4400.0
aF1000.0
aF4300.0
aF4100.0
aF4800.0
aF600.0
aF4100.0
aF4200.0
aF4200.0
aF4200.0
aF700.0
aF7800.0
aF3900.0
aF1100.0
aF4200.0
aF800.0
aF4200.0
aF4600.0
aF800.0
aF8200.0
aF4300.0
aF4000.0
aF4000.0
aF4700.0
aF4100.0
aF8500.0
aF4100.0
aF700.0
aF1100.0
aF4300.0
aF3900.0
aF8200.0
aF4400.0
aF4000.0
aF4400.0
aF1100.0
aF4400.0
aF4200.0
aF7800.0
aF4600.0
aF4100.0
aF4000.0
aF500.0
aF4400.0
aF3800.0
aF900.0
aF4300.0
aF3900.0
aF4000.0
aF4400.0
aF800.0
aF500.0
aF1000.0
aF4000.0
aF800.0
aF700.0
aF4100.0
aF1100.0
aF4400.0
aF4400.0
aF4200.0
aF4300.0
aF900.0
aF700.0
aF4200.0
aF4000.0
aF4100.0
aF4100.0
aF900.0
aF4300.0
aF4400.0
aF1400.0
aF5200.0
aF4400.0
aF4100.0
aF12200.0
aF4500.0
aF4100.0
aF4000.0
aF4900.0
aF4500.0
aF4200.0
aF4600.0
aF800.0
aF11900.0
aF4400.0
aF4500.0
aF4000.0
aF1300.0
aF4000.0
aF4300.0
aF4200.0
aF4800.0
aF3800.0
aF4000.0
aF4400.0
aF4600.0
aF400.0
aF4200.0
aF600.0
aF4000.0
aF4300.0
aF500.0
aF4700.0
aF1200.0
aF4500.0
aF3900.0
aF3900.0
aF4400.0
aF400.0
aF4400.0
aF4700.0
aF3800.0
aF4700.0
aF900.0
aF800.0
aF4100.0
aF3900.0
aF4500.0
aF3800.0
aF4000.0
aF700.0
aF800.0
aF900.0
aF4100.0
aF4500.0
aF4100.0
aF4300.0
aF4200.0
aF4400.0
aF4700.0
aF4100.0
aF4600.0
aF4300.0
aF4400.0
aF4400.0
aF4600.0
aF4700.0
aF4100.0
aF4000.0
aF4200.0
aF4300.0
aF4600.0
aF800.0
aF4100.0
aF4000.0
aF4300.0
aF4300.0
aF4200.0
aF500.0
aF4800.0
aF4300.0
aF800.0
aF4300.0
aF4200.0
aF4200.0
aF1000.0
aF800.0
aF4300.0
aF500.0
aF3900.0
aF4700.0
aF4200.0
aF1000.0
aF5100.0
aF900.0
aF1200.0
aF4100.0
aF4200.0
aF1000.0
aF4300.0
aF4000.0
aF700.0
aF900.0
aF1300.0
aF4300.0
aF4300.0
aF900.0
aF900.0
aF4800.0
aF4400.0
aF3900.0
aF600.0
aF4200.0
aF4100.0
aF600.0
aF4200.0
aF1000.0
aF8000.0
aF700.0
aF3800.0
aF8100.0
aF900.0
aF500.0
aF1100.0
aF4600.0
aF4300.0
aF500.0
aF4000.0
aF3900.0
aF1100.0
aF4600.0
aF4100.0
aF700.0
aF3900.0
aF4100.0
aF7800.0
aF4800.0
aF3900.0
aF4700.0
aF800.0
aF1000.0
aF4600.0
aF4500.0
aF900.0
aF4000.0
aF4100.0
aF600.0
aF800.0
aF1300.0
aF900.0
aF4100.0
aF4600.0
aF1000.0
aF4500.0
aF4500.0
aF4100.0
aF4400.0
aF700.0
aF4800.0
aF4000.0
aF4200.0
aF500.0
aF3900.0
aF4300.0
aF4100.0
aF4100.0
aF4900.0
aF4300.0
aF3800.0
aF4000.0
aF4500.0
aF800.0
aF1000.0
aF4300.0
aF4700.0
aF1400.0
aF4200.0
aF700.0
aF4500.0
aF4400.0
aF4700.0
aF1400.0
aF4300.0
aF4800.0
aF4400.0
aF4200.0
aF4000.0
aF4300.0
aF4200.0
aF4000.0
aF4400.0
aF1500.0
aF4500.0
aF4200.0
aF8500.0
aF4600.0
aF5400.0
aF800.0
aF4300.0
aF1100.0
aF700.0
aF4300.0
aF4200.0
aF4300.0
aF4000.0
aF700.0
aF3900.0
aF1000.0
aF700.0
aF3800.0
aF800.0
aF4700.0
aF4400.0
aF700.0
aF4700.0
aF4100.0
aF600.0
aF4900.0
aF1100.0
aF4800.0
aF4300.0
aF4600.0
aF1200.0
aF1100.0
aF5000.0
aF4300.0
aF4600.0
aF600.0
aF4200.0
aF4100.0
aF4300.0
aF700.0
aF4400.0
aF4600.0
aF16300.0
aF4100.0
aF4700.0
aF7700.0
aF700.0
aF800.0
aF4300.0
aF4100.0
aF4000.0
aF4600.0
aF4000.0
aF4400.0
aF3900.0
aF4700.0
aF4600.0
aF4000.0
aF900.0
aF700.0
aF700.0
aF800.0
aF4500.0
aF4700.0
aF1000.0
aF1700.0
aF1000.0
aF700.0
aF4200.0
aF4200.0
aF4800.0
aF4500.0
aF600.0
aF8000.0
aF4500.0
aF3900.0
aF4500.0
aF600.0
aF4000.0
aF4200.0
aF4300.0
aF4300.0
aF4200.0
aF600.0
aF4300.0
aF1200.0
aF4600.0
aF4700.0
aF8000.0
aF4000.0
aF4600.0
aF4400.0
aF3800.0
aF4800.0
aF700.0
aF4000.0
aF4500.0
aF4600.0
aF7600.0
aF3900.0
aF800.0
aF3800.0
aF4000.0
aF4300.0
aF4700.0
aF7900.0
aF3900.0
aF600.0
aF1000.0
aF4400.0
aF4500.0
aF4300.0
aF4200.0
aF3900.0
aF900.0
aF1300.0
aF800.0
aF900.0
aF4400.0
aF4200.0
aF4400.0
aF1000.0
aF4600.0
aF5000.0
aF800.0
aF5000.0
aF4400.0
aF4300.0
aF800.0
aF4200.0
aF4200.0
aF4200.0
aF4400.0
aF4100.0
aF4500.0
aF700.0
aF4800.0
aF4200.0
aF4200.0
aF4200.0
aF3800.0
aF4200.0
aF700.0
aF1400.0
aF4900.0
aF4100.0
aF4400.0
aF700.0
aF4300.0
aF4500.0
aF300.0
aF4100.0
aF500.0
aF1000.0
aF4500.0
aF4200.0
aF4200.0
aF4900.0
aF4800.0
aF3900.0
aF4400.0
aF4500.0
aF1800.0
aF4400.0
aF4000.0
aF800.0
aF800.0
aF4400.0
aF4500.0
aF600.0
aF3900.0
aF1000.0
aF1300.0
aF4300.0
aF4300.0
aF1000.0
aF4100.0
aF700.0
aF4300.0
aF600.0
aF4400.0
aF4300.0
aF7800.0
aF1500.0
aF4000.0
aF700.0
aF4000.0
aF3800.0
aF800.0
aF11800.0
aF4700.0
aF900.0
aF3900.0
aF4200.0
aF4500.0
aF800.0
aF1000.0
aF4500.0
aF8200.0
aF800.0
aF1000.0
aF4300.0
aF4300.0
aF4600.0
aF900.0
aF4700.0
aF4600.0
aF4100.0
aF4000.0
aF4600.0
aF4700.0
aF800.0
aF3900.0
aF4200.0
aF5000.0
aF600.0
aF8600.0
aF800.0
aF4200.0
aF4300.0
aF900.0
aF600.0
aF800.0
aF4600.0
aF4200.0
aF4000.0
aF1100.0
aF700.0
aF5000.0
aF700.0
aF4600.0
aF4200.0
aF4100.0
aF4000.0
aF3900.0
aF900.0
aF400.0
aF4500.0
aF4300.0
aF4000.0
aF4600.0
aF5000.0
aF4500.0
aF4200.0
aF500.0
aF4600.0
aF600.0
aF4500.0
aF4000.0
aF4500.0
aF4600.0
aF8000.0
aF4100.0
aF4100.0
aF1200.0
aF4300.0
aF500.0
aF4200.0
aF700.0
aF4800.0
aF4500.0
aF900.0
aF600.0
aF8300.0
aF4500.0
aF900.0
aF4400.0
aF1300.0
aF4500.0
aF4100.0
aF4600.0
aF4100.0
aF4400.0
aF4500.0
aF4100.0
aF1200.0
aF600.0
aF800.0
aF4700.0
aF700.0
aF4500.0
aF4400.0
aF4300.0
aF4200.0
aF800.0
aF4100.0
aF4600.0
aF600.0
aF3900.0
aF3900.0
aF800.0
aF1200.0
aF8100.0
aF3900.0
aF4200.0
aF1100.0
aF4500.0
aF4200.0
aF800.0
aF4100.0
aF7600.0
aF4000.0
aF4300.0
aF4100.0
aF1300.0
aF1100.0
aF4200.0
aF700.0
aF4100.0
aF4300.0
aF4600.0
aF700.0
aF4100.0
aF4100.0
aF4000.0
aF600.0
aF700.0
aF4600.0
aF1000.0
aF4300.0
aF1100.0
aF5100.0
aF4400.0
aF600.0
aF4100.0
aF4900.0
aF4300.0
aF4400.0
aF3900.0
aF4300.0
aF700.0
aF1600.0
aF4500.0
aF700.0
aF800.0
aF4100.0
aF4500.0
aF4200.0
aF5100.0
aF7700.0
aF4200.0
aF4200.0
aF4300.0
aF4000.0
aF4200.0
aF4600.0
aF4400.0
aF4100.0
aF4700.0
aF1000.0
aF4100.0
aF800.0
aF4200.0
aF4200.0
aF4600.0
aF800.0
aF1200.0
aF4000.0
aF700.0
aF800.0
aF1200.0
aF3900.0
aF4000.0
aF500.0
aF4200.0
aF5200.0
aF4200.0
aF3900.0
aF700.0
aF3900.0
aF7800.0
aF3900.0
aF8100.0
aF4600.0
aF4100.0
aF4200.0
aF4400.0
aF7700.0
aF4300.0
aF4200.0
aF800.0
aF4200.0
aF4000.0
aF3800.0
aF4400.0
aF4300.0
aF4400.0
aF900.0
aF1200.0
aF4600.0
aF4000.0
aF4000.0
aF800.0
aF3900.0
aF4500.0
aF800.0
aF4200.0
aF4500.0
aF4500.0
aF3800.0
aF4000.0
aF3800.0
aF4000.0
aF4300.0
aF4600.0
aF3900.0
aF1000.0
aF700.0
aF3800.0
aF1000.0
aF4000.0
aF900.0
aF4500.0
aF4400.0
aF1200.0
aF600.0
aF3900.0
aF4200.0
aF700.0
aF4100.0
aF7800.0
aF4400.0
aF4000.0
aF3900.0
aF900.0
aF4100.0
aF4200.0
aF600.0
aF3800.0
aF500.0
aF1100.0
aF4900.0
aF4400.0
aF4400.0
aF4300.0
aF700.0
aF800.0
aF4400.0
aF4100.0
aF4500.0
aF8100.0
aF4600.0
aF4600.0
aF1000.0
aF1200.0
aF1300.0
aF4300.0
aF4900.0
aF4500.0
aF4000.0
aF900.0
aF4000.0
aF3800.0
aF4300.0
aF4000.0
aF4700.0
aF4300.0
aF4300.0
aF700.0
aF4400.0
aF4700.0
aF4400.0
aF4500.0
aF800.0
aF4900.0
aF4200.0
aF900.0
aF700.0
aF4200.0
aF600.0
aF3900.0
aF4500.0
aF600.0
aF4300.0
aF4200.0
aF4000.0
aF700.0
aF1000.0
aF5000.0
aF900.0
aF4600.0
aF4100.0
aF4200.0
aF1100.0
aF4600.0
aF1000.0
aF4000.0
aF3900.0
aF1700.0
aF4100.0
aF4900.0
aF1100.0
aF1100.0
aF4700.0
aF700.0
aF4500.0
aF4100.0
aF4500.0
aF4400.0
aF4600.0
aF4300.0
aF4300.0
aF4600.0
aF4000.0
aF4900.0
aF900.0
aF4300.0
aF600.0
aF4300.0
aF800.0
aF5000.0
aF3900.0
aF4200.0
aF900.0
aF4400.0
aF4600.0
aF4700.0
aF4300.0
aF4500.0
aF4100.0
aF900.0
aF700.0
aF1100.0
aF1000.0
aF4500.0
aF3900.0
aF1000.0
aF600.0
aF4500.0
aF700.0
aF3800.0
aF4600.0
aF400.0
aF4500.0
aF800.0
aF1400.0
aF800.0
aF900.0
aF4000.0
aF3900.0
aF3900.0
aF4400.0
aF3900.0
aF500.0
aF4200.0
aF4300.0
aF7700.0
aF4100.0
aF4700.0
aF4500.0
aF3800.0
aF4400.0
aF3900.0
aF4300.0
aF1600.0
aF700.0
aF4100.0
aF3800.0
aF4100.0
aF5200.0
aF1000.0
aF800.0
aF900.0
a.