(lp0
F-20.0
aF-20.0
aF-21.0
aF-20.0
aF-18.0
aF-17.0
aF-19.0
aF-20.0
aF-17.0
aF-20.0
aF-19.0
aF-18.0
aF-18.0
aF-18.0
aF-20.0
aF-16.0
aF-21.0
aF-19.0
aF-20.0
aF-19.0
aF-18.0
aF-20.0
aF-18.0
aF-21.0
aF-19.0
aF-19.0
aF-21.0
aF-19.0
aF-20.0
aF-21.0
aF-19.0
aF-20.0
aF-16.0
aF-18.0
aF-19.0
aF-20.0
aF-17.0
aF-20.0
aF-18.0
aF-20.0
aF-19.0
aF-19.0
aF-18.0
aF-19.0
aF-19.0
aF-17.0
aF-18.0
aF-20.0
aF-20.0
aF-21.0
aF-17.0
aF-15.0
aF-17.0
aF-18.0
aF-21.0
aF-17.0
aF-14.0
aF-15.0
aF-20.0
aF-21.0
aF-18.0
aF-19.0
aF-18.0
aF-14.0
aF-17.0
aF-13.0
aF-19.0
aF-20.0
aF-17.0
aF-17.0
aF-17.0
aF-20.0
aF-20.0
aF-21.0
aF-21.0
aF-21.0
aF-21.0
aF-21.0
aF-21.0
aF-21.0
aF-21.0
aF-21.0
aF-21.0
aF-21.0
aF-21.0
aF-21.0
aF-21.0
aF-21.0
aF-21.0
aF-21.0
aF-21.0
aF-21.0
aF-21.0
aF-21.0
aF-21.0
aF-21.0
aF-19.0
aF-19.0
aF-17.0
aF-18.0
aF-16.0
aF-15.0
aF-19.0
aF-19.0
aF-21.0
aF-19.0
aF-21.0
aF-21.0
aF-21.0
aF-21.0
aF-19.0
aF-21.0
aF-21.0
aF-21.0
aF-21.0
aF-21.0
aF-18.0
aF-20.0
aF-21.0
aF-21.0
aF-21.0
aF-19.0
aF-19.0
aF-21.0
aF-21.0
aF-21.0
aF-21.0
aF-21.0
aF-21.0
aF-21.0
aF-21.0
aF-21.0
aF-21.0
aF-21.0
aF-21.0
aF-21.0
aF-21.0
aF-21.0
aF-19.0
aF-21.0
aF-16.0
aF-16.0
aF-16.0
aF-13.0
aF-12.0
aF-15.0
aF-18.0
aF-13.0
aF-21.0
aF-21.0
aF-21.0
aF-21.0
aF-20.0
aF-21.0
aF-20.0
aF-21.0
aF-19.0
aF-21.0
aF-18.0
aF-19.0
aF-18.0
aF-15.0
aF-9.0
aF-12.0
aF-18.0
aF-17.0
aF-21.0
aF-18.0
aF-18.0
aF-17.0
aF-15.0
aF-20.0
aF-19.0
aF-18.0
aF-18.0
aF-21.0
aF-21.0
aF-19.0
aF-19.0
aF-17.0
aF-21.0
aF-15.0
aF-16.0
aF-15.0
aF-21.0
aF-19.0
aF-20.0
aF-21.0
aF-20.0
aF-20.0
aF-18.0
aF-19.0
aF-19.0
aF-19.0
aF-13.0
aF-20.0
aF-17.0
aF-15.0
aF-15.0
aF-16.0
aF-14.0
aF-20.0
aF-13.0
aF-15.0
aF-17.0
aF-17.0
aF-13.0
aF-17.0
aF-11.0
aF-18.0
aF-18.0
aF-16.0
aF-17.0
aF-15.0
aF-13.0
aF-15.0
aF-16.0
aF-20.0
aF-19.0
aF-17.0
aF-19.0
aF-20.0
aF-19.0
aF-20.0
aF-19.0
aF-20.0
aF-19.0
aF-18.0
aF-20.0
aF-20.0
aF-19.0
aF-20.0
aF-20.0
aF-16.0
aF-18.0
aF-17.0
aF-15.0
aF-17.0
aF-21.0
aF-21.0
aF-19.0
aF-19.0
aF-18.0
aF-21.0
aF-20.0
aF-19.0
aF-16.0
aF-16.0
aF-18.0
aF-17.0
aF-15.0
aF-17.0
aF-20.0
aF-15.0
aF-11.0
aF-16.0
aF-18.0
aF-19.0
aF-18.0
aF-18.0
aF-17.0
aF-14.0
aF-19.0
aF-13.0
aF-16.0
aF-14.0
aF-11.0
aF-18.0
aF-12.0
aF-15.0
aF-20.0
aF-17.0
aF-12.0
aF-12.0
aF-15.0
aF-16.0
aF-13.0
aF-13.0
aF-14.0
aF-17.0
aF-16.0
aF-14.0
aF-16.0
aF-17.0
aF-16.0
aF-19.0
aF-18.0
aF-17.0
aF-16.0
aF-14.0
aF-16.0
aF-17.0
aF-15.0
aF-17.0
aF-18.0
aF-18.0
aF-18.0
aF-12.0
aF-20.0
aF-11.0
aF-18.0
aF-10.0
aF-7.0
aF-15.0
aF-15.0
aF-11.0
aF-18.0
aF-12.0
aF-16.0
aF-13.0
aF-11.0
aF-18.0
aF-14.0
aF-16.0
aF-19.0
aF-14.0
aF-13.0
aF-18.0
aF-3.0
aF-15.0
aF-10.0
aF-17.0
aF-15.0
aF-13.0
aF-14.0
aF-11.0
aF-15.0
aF-10.0
aF-4.0
aF-16.0
aF-9.0
aF-15.0
aF-11.0
aF-10.0
aF-6.0
aF7.0
aF-5.0
aF-7.0
aF-3.0
aF2.0
aF-13.0
aF-17.0
aF-11.0
aF-11.0
aF-5.0
aF-14.0
aF-7.0
aF-16.0
aF-14.0
aF-15.0
aF-14.0
aF-5.0
aF-6.0
aF-11.0
aF-10.0
aF-6.0
aF-7.0
aF-1.0
aF-5.0
aF-8.0
aF1.0
aF3.0
aF6.0
aF-8.0
aF3.0
aF-3.0
aF-10.0
aF10.0
aF-7.0
aF-11.0
aF5.0
aF8.0
aF11.0
aF-6.0
aF-13.0
aF9.0
aF-10.0
aF-14.0
aF-5.0
aF-2.0
aF-10.0
aF2.0
aF-3.0
aF3.0
aF4.0
aF-3.0
aF-16.0
aF-2.0
aF6.0
aF7.0
aF3.0
aF15.0
aF1.0
aF11.0
aF-6.0
aF9.0
aF9.0
aF4.0
aF-3.0
aF-8.0
aF4.0
aF-11.0
aF-12.0
aF-10.0
aF4.0
aF-6.0
aF-12.0
aF10.0
aF-7.0
aF6.0
aF5.0
aF-2.0
aF-13.0
aF-9.0
aF-1.0
aF-2.0
aF3.0
aF8.0
aF11.0
aF10.0
aF4.0
aF-4.0
aF7.0
aF-4.0
aF-7.0
aF11.0
aF13.0
aF4.0
aF15.0
aF2.0
aF-3.0
aF5.0
aF5.0
aF3.0
aF-3.0
aF9.0
aF7.0
aF4.0
aF9.0
aF-5.0
aF3.0
aF11.0
aF-2.0
aF-5.0
aF5.0
aF-14.0
aF-1.0
aF15.0
aF6.0
aF14.0
aF13.0
aF6.0
aF8.0
aF15.0
aF10.0
aF15.0
aF10.0
aF18.0
aF1.0
aF5.0
aF6.0
aF15.0
aF7.0
aF1.0
aF7.0
aF8.0
aF-4.0
aF2.0
aF12.0
aF10.0
aF17.0
aF5.0
aF8.0
aF11.0
aF6.0
aF3.0
aF17.0
aF2.0
aF13.0
aF14.0
aF12.0
aF13.0
aF11.0
aF16.0
aF16.0
aF9.0
aF6.0
aF6.0
aF7.0
aF9.0
aF12.0
aF9.0
aF10.0
aF15.0
aF6.0
aF-5.0
aF12.0
aF13.0
aF10.0
aF12.0
aF-10.0
aF10.0
aF16.0
aF9.0
aF4.0
aF-3.0
aF-3.0
aF16.0
aF6.0
aF12.0
aF17.0
aF7.0
aF13.0
aF2.0
aF11.0
aF5.0
aF12.0
aF5.0
aF8.0
aF14.0
aF9.0
aF9.0
aF7.0
aF6.0
aF2.0
aF-2.0
aF4.0
aF13.0
aF14.0
aF15.0
aF12.0
aF17.0
aF3.0
aF15.0
aF9.0
aF11.0
aF8.0
aF18.0
aF13.0
aF5.0
aF20.0
aF14.0
aF11.0
aF14.0
aF14.0
aF15.0
aF8.0
aF7.0
aF10.0
aF14.0
aF11.0
aF10.0
aF10.0
aF17.0
aF10.0
aF11.0
aF12.0
aF12.0
aF8.0
aF8.0
aF16.0
aF9.0
aF11.0
aF17.0
aF17.0
aF9.0
aF14.0
aF17.0
aF4.0
aF18.0
aF16.0
aF11.0
aF11.0
aF14.0
aF15.0
aF14.0
aF12.0
aF14.0
aF18.0
aF19.0
aF12.0
aF12.0
aF16.0
aF5.0
aF6.0
aF15.0
aF15.0
aF13.0
aF15.0
aF18.0
aF15.0
aF9.0
aF16.0
aF10.0
aF12.0
aF17.0
aF9.0
aF12.0
aF13.0
aF9.0
aF19.0
aF13.0
aF13.0
aF13.0
aF11.0
aF14.0
aF14.0
aF16.0
aF17.0
aF19.0
aF3.0
aF12.0
aF15.0
aF11.0
aF12.0
aF14.0
aF10.0
aF17.0
aF13.0
aF13.0
aF16.0
aF16.0
aF12.0
aF14.0
aF9.0
aF14.0
aF14.0
aF18.0
aF16.0
aF16.0
aF14.0
aF12.0
aF16.0
aF15.0
aF10.0
aF18.0
aF11.0
aF10.0
aF10.0
aF15.0
aF15.0
aF19.0
aF18.0
aF14.0
aF17.0
aF17.0
aF20.0
aF11.0
aF16.0
aF12.0
aF16.0
aF8.0
aF12.0
aF8.0
aF7.0
aF16.0
aF12.0
aF9.0
aF11.0
aF13.0
aF4.0
aF13.0
aF14.0
aF16.0
aF15.0
aF8.0
aF14.0
aF11.0
aF19.0
aF15.0
aF10.0
aF12.0
aF13.0
aF8.0
aF15.0
aF14.0
aF18.0
aF7.0
aF13.0
aF15.0
aF13.0
aF16.0
aF18.0
aF17.0
aF15.0
aF19.0
aF17.0
aF13.0
aF20.0
aF12.0
aF15.0
aF13.0
aF17.0
aF14.0
aF15.0
aF12.0
aF16.0
aF14.0
aF11.0
aF16.0
a.
