(lp0
F-20.0
aF-20.0
aF-21.0
aF-20.0
aF-18.0
aF-17.0
aF-19.0
aF-20.0
aF-17.0
aF-20.0
aF-19.0
aF-18.0
aF-18.0
aF-18.0
aF-20.0
aF-16.0
aF-21.0
aF-19.0
aF-20.0
aF-19.0
aF-18.0
aF-20.0
aF-18.0
aF-21.0
aF-19.0
aF-19.0
aF-21.0
aF-19.0
aF-20.0
aF-21.0
aF-19.0
aF-20.0
aF-16.0
aF-18.0
aF-19.0
aF-20.0
aF-17.0
aF-20.0
aF-18.0
aF-20.0
aF-19.0
aF-19.0
aF-18.0
aF-19.0
aF-19.0
aF-17.0
aF-18.0
aF-20.0
aF-20.0
aF-21.0
aF-17.0
aF-15.0
aF-17.0
aF-18.0
aF-21.0
aF-17.0
aF-14.0
aF-15.0
aF-20.0
aF-21.0
aF-18.0
aF-19.0
aF-18.0
aF-14.0
aF-17.0
aF-13.0
aF-19.0
aF-20.0
aF-17.0
aF-17.0
aF-17.0
aF-20.0
aF-20.0
aF-21.0
aF-21.0
aF-21.0
aF-21.0
aF-21.0
aF-21.0
aF-21.0
aF-21.0
aF-21.0
aF-21.0
aF-21.0
aF-21.0
aF-21.0
aF-21.0
aF-21.0
aF-21.0
aF-21.0
aF-21.0
aF-21.0
aF-21.0
aF-21.0
aF-21.0
aF-21.0
aF-19.0
aF-19.0
aF-17.0
aF-18.0
aF-16.0
aF-15.0
aF-19.0
aF-19.0
aF-21.0
aF-19.0
aF-21.0
aF-21.0
aF-21.0
aF-21.0
aF-19.0
aF-21.0
aF-21.0
aF-21.0
aF-21.0
aF-21.0
aF-18.0
aF-20.0
aF-21.0
aF-21.0
aF-21.0
aF-19.0
aF-19.0
aF-21.0
aF-21.0
aF-21.0
aF-21.0
aF-21.0
aF-21.0
aF-21.0
aF-21.0
aF-21.0
aF-21.0
aF-21.0
aF-21.0
aF-21.0
aF-21.0
aF-21.0
aF-19.0
aF-21.0
aF-16.0
aF-16.0
aF-16.0
aF-13.0
aF-12.0
aF-15.0
aF-18.0
aF-13.0
aF-21.0
aF-21.0
aF-21.0
aF-21.0
aF-20.0
aF-21.0
aF-20.0
aF-21.0
aF-19.0
aF-21.0
aF-18.0
aF-19.0
a.